target datalayout = "e-m:e-p270:32:32-p271:32:32-p272:64:64-i64:64-i128:128-f80:128-n8:16:32:64-S128"
target triple = "x86_64-pc-linux-gnu"

%struct.lua_State = type { ptr, i8, i8, i8, i8, i16, %union.StkIdRel, ptr, ptr, %union.StkIdRel, %union.StkIdRel, ptr, %union.StkIdRel, ptr, ptr, ptr, %struct.CallInfo, ptr, i64, i32, i32, i32, i32, i32, %struct.anon.2 }
%union.StkIdRel = type { ptr }
%struct.CallInfo = type { %union.StkIdRel, %union.StkIdRel, ptr, ptr, %union.anon, %union.anon.1, i32 }
%union.anon = type { %struct.anon.0 }
%struct.anon.0 = type { ptr, i64, i64 }
%union.anon.1 = type { i32 }
%struct.anon.2 = type { i32, i32 }
%struct.global_State = type { ptr, ptr, i64, i64, i64, i64, %struct.stringtable, %struct.TValue, %struct.TValue, i32, [6 x i8], i8, i8, i8, i8, i8, i8, ptr, ptr, ptr, ptr, ptr, ptr, ptr, ptr, ptr, ptr, ptr, ptr, ptr, ptr, ptr, ptr, ptr, ptr, ptr, ptr, ptr, [25 x ptr], [9 x ptr], [53 x [2 x ptr]], ptr, ptr }
%struct.stringtable = type { ptr, i32, i32 }
%struct.TValue = type { %union.Value, i8 }
%union.Value = type { ptr }
%struct.GCObject = type { ptr, i8, i8 }

; Function Attrs: nounwind uwtable
define hidden void @luaC_barrier_(ptr noundef %0, ptr noundef %1, ptr noundef %2) #0 {
  %4 = alloca ptr, align 8
  %5 = alloca ptr, align 8
  %6 = alloca ptr, align 8
  %7 = alloca ptr, align 8
  store ptr %0, ptr %4, align 8, !tbaa !4
  store ptr %1, ptr %5, align 8, !tbaa !9
  store ptr %2, ptr %6, align 8, !tbaa !9
  call void @llvm.lifetime.start.p0(i64 8, ptr %7) #6
  %8 = load ptr, ptr %4, align 8, !tbaa !4
  %9 = getelementptr inbounds nuw %struct.lua_State, ptr %8, i32 0, i32 7
  %10 = load ptr, ptr %9, align 8, !tbaa !11
  store ptr %10, ptr %7, align 8, !tbaa !22
  %11 = load ptr, ptr %7, align 8, !tbaa !22
  %12 = getelementptr inbounds nuw %struct.global_State, ptr %11, i32 0, i32 12
  %13 = load i8, ptr %12, align 1, !tbaa !23
  %14 = zext i8 %13 to i32
  %15 = icmp sle i32 %14, 2
  br i1 %15, label %16, label %36

16:                                               ; preds = %3
  %17 = load ptr, ptr %7, align 8, !tbaa !22
  %18 = load ptr, ptr %6, align 8, !tbaa !9
  call void @reallymarkobject(ptr noundef %17, ptr noundef %18)
  %19 = load ptr, ptr %5, align 8, !tbaa !9
  %20 = getelementptr inbounds nuw %struct.GCObject, ptr %19, i32 0, i32 2
  %21 = load i8, ptr %20, align 1, !tbaa !30
  %22 = zext i8 %21 to i32
  %23 = and i32 %22, 7
  %24 = icmp sgt i32 %23, 1
  br i1 %24, label %25, label %35

25:                                               ; preds = %16
  %26 = load ptr, ptr %6, align 8, !tbaa !9
  %27 = getelementptr inbounds nuw %struct.GCObject, ptr %26, i32 0, i32 2
  %28 = load i8, ptr %27, align 1, !tbaa !30
  %29 = zext i8 %28 to i32
  %30 = and i32 %29, -8
  %31 = or i32 %30, 2
  %32 = trunc i32 %31 to i8
  %33 = load ptr, ptr %6, align 8, !tbaa !9
  %34 = getelementptr inbounds nuw %struct.GCObject, ptr %33, i32 0, i32 2
  store i8 %32, ptr %34, align 1, !tbaa !30
  br label %35

35:                                               ; preds = %25, %16
  br label %60

36:                                               ; preds = %3
  %37 = load ptr, ptr %7, align 8, !tbaa !22
  %38 = getelementptr inbounds nuw %struct.global_State, ptr %37, i32 0, i32 13
  %39 = load i8, ptr %38, align 4, !tbaa !32
  %40 = zext i8 %39 to i32
  %41 = icmp ne i32 %40, 1
  br i1 %41, label %42, label %59

42:                                               ; preds = %36
  %43 = load ptr, ptr %5, align 8, !tbaa !9
  %44 = getelementptr inbounds nuw %struct.GCObject, ptr %43, i32 0, i32 2
  %45 = load i8, ptr %44, align 1, !tbaa !30
  %46 = zext i8 %45 to i32
  %47 = and i32 %46, -57
  %48 = load ptr, ptr %7, align 8, !tbaa !22
  %49 = getelementptr inbounds nuw %struct.global_State, ptr %48, i32 0, i32 11
  %50 = load i8, ptr %49, align 2, !tbaa !33
  %51 = zext i8 %50 to i32
  %52 = and i32 %51, 24
  %53 = trunc i32 %52 to i8
  %54 = zext i8 %53 to i32
  %55 = or i32 %47, %54
  %56 = trunc i32 %55 to i8
  %57 = load ptr, ptr %5, align 8, !tbaa !9
  %58 = getelementptr inbounds nuw %struct.GCObject, ptr %57, i32 0, i32 2
  store i8 %56, ptr %58, align 1, !tbaa !30
  br label %59

59:                                               ; preds = %42, %36
  br label %60

60:                                               ; preds = %59, %35
  call void @llvm.lifetime.end.p0(i64 8, ptr %7) #6
  ret void
}