; Function Attrs: nounwind uwtable
define hidden void @luaC_barrier_(ptr noundef readonly captures(none) %0, ptr noundef captures(none) %1, ptr noundef %2) local_unnamed_addr #0 {
  %4 = getelementptr inbounds nuw i8, ptr %0, i64 24
  %5 = load ptr, ptr %4, align 8, !tbaa !4
  %6 = getelementptr inbounds nuw i8, ptr %5, i64 107
  %7 = load i8, ptr %6, align 1, !tbaa !20
  %8 = icmp ult i8 %7, 3
  br i1 %8, label %9, label %18

9:                                                ; preds = %3
  tail call fastcc void @reallymarkobject(ptr noundef nonnull %5, ptr noundef %2)
  %10 = getelementptr inbounds nuw i8, ptr %1, i64 9
  %11 = load i8, ptr %10, align 1, !tbaa !27
  %12 = and i8 %11, 6
  %.not11 = icmp eq i8 %12, 0
  br i1 %.not11, label %29, label %13

13:                                               ; preds = %9
  %14 = getelementptr inbounds nuw i8, ptr %2, i64 9
  %15 = load i8, ptr %14, align 1, !tbaa !27
  %16 = and i8 %15, -8
  %17 = or disjoint i8 %16, 2
  store i8 %17, ptr %14, align 1, !tbaa !27
  br label %29

18:                                               ; preds = %3
  %19 = getelementptr inbounds nuw i8, ptr %5, i64 108
  %20 = load i8, ptr %19, align 4, !tbaa !29
  %.not = icmp eq i8 %20, 1
  br i1 %.not, label %29, label %21

21:                                               ; preds = %18
  %22 = getelementptr inbounds nuw i8, ptr %1, i64 9
  %23 = load i8, ptr %22, align 1, !tbaa !27
  %24 = and i8 %23, -57
  %25 = getelementptr inbounds nuw i8, ptr %5, i64 106
  %26 = load i8, ptr %25, align 2, !tbaa !30
  %27 = and i8 %26, 24
  %28 = or disjoint i8 %27, %24
  store i8 %28, ptr %22, align 1, !tbaa !27
  br label %29

29:                                               ; preds = %18, %21, %9, %13
  ret void
}